(dp0
S'METTS MARK'
p1
(dp2
S'to_messages'
p3
I807
sS'deferral_payments'
p4
S'NaN'
p5
sS'poi_message_ratio'
p6
F0.04665071770334928
sS'expenses'
p7
I94299
sS'poi'
p8
I00
sS'deferred_income'
p9
g5
sS'long_term_incentive'
p10
g5
sS'restricted_stock_deferred'
p11
g5
sS'shared_receipt_with_poi'
p12
I702
sS'loan_advances'
p13
g5
sS'from_messages'
p14
I29
sS'other'
p15
I1740
sS'director_fees'
p16
g5
sS'bonus'
p17
I600000
sS'total_stock_value'
p18
I585062
sS'from_poi_to_this_person'
p19
I38
sS'from_this_person_to_poi'
p20
I1
sS'restricted_stock'
p21
I585062
sS'salary'
p22
I365788
sS'name'
p23
g1
sS'total_payments'
p24
I1061827
sS'exercised_stock_options'
p25
g5
ssS'BAXTER JOHN C'
p26
(dp27
g3
g5
sg4
I1295738
sg6
S'NaN'
p28
sg7
I11200
sg8
I00
sg9
I-1386055
sg10
I1586055
sg11
g5
sg12
g5
sg13
g5
sg14
g5
sg15
I2660303
sg16
g5
sg17
I1200000
sg18
I10623258
sg19
g5
sg20
g5
sg21
I3942714
sg22
I267102
sg23
g26
sg24
I5634343
sg25
I6680544
ssS'ELLIOTT STEVEN'
p29
(dp30
g3
g5
sg4
g5
sg6
g28
sg7
I78552
sg8
I00
sg9
I-400729
sg10
g5
sg11
g5
sg12
g5
sg13
g5
sg14
g5
sg15
I12961
sg16
g5
sg17
I350000
sg18
I6678735
sg19
g5
sg20
g5
sg21
I1788391
sg22
I170941
sg23
g29
sg24
I211725
sg25
I4890344
ssS'CORDES WILLIAM R'
p31
(dp32
g3
I764
sg4
g5
sg6
F0.01288659793814433
sg7
g5
sg8
I00
sg9
g5
sg10
g5
sg11
g5
sg12
I58
sg13
g5
sg14
I12
sg15
g5
sg16
g5
sg17
g5
sg18
I1038185
sg19
I10
sg20
I0
sg21
I386335
sg22
g5
sg23
g31
sg24
g5
sg25
I651850
ssS'HANNON KEVIN P'
p33
(dp34
g3
I1045
sg4
g5
sg6
F0.04921077065923862
sg7
I34039
sg8
I01
sg9
I-3117011
sg10
I1617011
sg11
g5
sg12
I1035
sg13
g5
sg14
I32
sg15
I11350
sg16
g5
sg17
I1500000
sg18
I6391065
sg19
I32
sg20
I21
sg21
I853064
sg22
I243293
sg23
g33
sg24
I288682
sg25
I5538001
ssS'MORDAUNT KRISTINA M'
p35
(dp36
g3
g5
sg4
g5
sg6
g28
sg7
I35018
sg8
I00
sg9
g5
sg10
g5
sg11
g5
sg12
g5
sg13
g5
sg14
g5
sg15
I1411
sg16
g5
sg17
I325000
sg18
I208510
sg19
g5
sg20
g5
sg21
I208510
sg22
I267093
sg23
g35
sg24
I628522
sg25
g5
ssS'MEYER ROCKFORD G'
p37
(dp38
g3
I232
sg4
I1848227
sg6
F0.0
sg7
g5
sg8
I00
sg9
g5
sg10
g5
sg11
g5
sg12
I22
sg13
g5
sg14
I28
sg15
g5
sg16
g5
sg17
g5
sg18
I955873
sg19
I0
sg20
I0
sg21
I462384
sg22
g5
sg23
g37
sg24
I1848227
sg25
I493489
ssS'MCMAHON JEFFREY'
p39
(dp40
g3
I2355
sg4
g5
sg6
F0.03495630461922597
sg7
I137108
sg8
I00
sg9
g5
sg10
I694862
sg11
g5
sg12
I2228
sg13
g5
sg14
I48
sg15
I297353
sg16
g5
sg17
I2600000
sg18
I1662855
sg19
I58
sg20
I26
sg21
I558801
sg22
I370448
sg23
g39
sg24
I4099771
sg25
I1104054
ssS'HORTON STANLEY C'
p41
(dp42
g3
I2350
sg4
I3131860
sg6
F0.017236342389716622
sg7
g5
sg8
I00
sg9
g5
sg10
g5
sg11
g5
sg12
I1074
sg13
g5
sg14
I1073
sg15
g5
sg16
g5
sg17
g5
sg18
I7256648
sg19
I44
sg20
I15
sg21
I2046079
sg22
g5
sg23
g41
sg24
I3131860
sg25
I5210569
ssS'PIPER GREGORY F'
p43
(dp44
g3
I1238
sg4
I1130036
sg6
F0.07465753424657534
sg7
I43057
sg8
I00
sg9
I-33333
sg10
g5
sg11
I-409554
sg12
I742
sg13
g5
sg14
I222
sg15
I778
sg16
g5
sg17
I400000
sg18
I880290
sg19
I61
sg20
I48
sg21
I409554
sg22
I197091
sg23
g43
sg24
I1737629
sg25
I880290
ssS'HUMPHREY GENE E'
p45
(dp46
g3
I128
sg4
I2964506
sg6
F0.18620689655172415
sg7
I4994
sg8
I00
sg9
g5
sg10
g5
sg11
g5
sg12
I119
sg13
g5
sg14
I17
sg15
g5
sg16
g5
sg17
g5
sg18
I2282768
sg19
I10
sg20
I17
sg21
g5
sg22
I130724
sg23
g45
sg24
I3100224
sg25
I2282768
ssS'UMANOFF ADAM S'
p47
(dp48
g3
I111
sg4
g5
sg6
F0.09302325581395349
sg7
I53122
sg8
I00
sg9
g5
sg10
g5
sg11
g5
sg12
I41
sg13
g5
sg14
I18
sg15
g5
sg16
g5
sg17
I788750
sg18
g5
sg19
I12
sg20
I0
sg21
g5
sg22
I288589
sg23
g47
sg24
I1130461
sg25
g5
ssS'BLACHMAN JEREMY M'
p49
(dp50
g3
I2475
sg4
g5
sg6
F0.010847730012053034
sg7
I84208
sg8
I00
sg9
g5
sg10
I831809
sg11
g5
sg12
I2326
sg13
g5
sg14
I14
sg15
I272
sg16
g5
sg17
I850000
sg18
I954354
sg19
I25
sg20
I2
sg21
I189041
sg22
I248546
sg23
g49
sg24
I2014835
sg25
I765313
ssS'SUNDE MARTIN'
p51
(dp52
g3
I2647
sg4
g5
sg6
F0.0186219739292365
sg7
g5
sg8
I00
sg9
g5
sg10
I476451
sg11
g5
sg12
I2565
sg13
g5
sg14
I38
sg15
I111122
sg16
g5
sg17
I700000
sg18
I698920
sg19
I37
sg20
I13
sg21
I698920
sg22
I257486
sg23
g51
sg24
I1545059
sg25
g5
ssS'GIBBS DANA R'
p53
(dp54
g3
I169
sg4
I504610
sg6
F0.0
sg7
g5
sg8
I00
sg9
g5
sg10
I461912
sg11
g5
sg12
I23
sg13
g5
sg14
I12
sg15
g5
sg16
g5
sg17
g5
sg18
I2218275
sg19
I0
sg20
I0
sg21
g5
sg22
g5
sg23
g53
sg24
I966522
sg25
I2218275
ssS'LOWRY CHARLES P'
p55
(dp56
g3
g5
sg4
g5
sg6
g28
sg7
g5
sg8
I00
sg9
g5
sg10
g5
sg11
I-153686
sg12
g5
sg13
g5
sg14
g5
sg15
g5
sg16
g5
sg17
g5
sg18
I372205
sg19
g5
sg20
g5
sg21
I153686
sg22
g5
sg23
g55
sg24
g5
sg25
I372205
ssS'COLWELL WESLEY'
p57
(dp58
g3
I1758
sg4
I27610
sg6
F0.13959955506117908
sg7
I16514
sg8
I01
sg9
I-144062
sg10
g5
sg11
g5
sg12
I1132
sg13
g5
sg14
I40
sg15
I101740
sg16
g5
sg17
I1200000
sg18
I698242
sg19
I240
sg20
I11
sg21
I698242
sg22
I288542
sg23
g57
sg24
I1490344
sg25
g5
ssS'MULLER MARK S'
p59
(dp60
g3
I136
sg4
I842924
sg6
F0.07894736842105263
sg7
g5
sg8
I00
sg9
I-719000
sg10
I1725545
sg11
g5
sg12
I114
sg13
g5
sg14
I16
sg15
I947
sg16
g5
sg17
I1100000
sg18
I1416848
sg19
I12
sg20
I0
sg21
I360528
sg22
I251654
sg23
g59
sg24
I3202070
sg25
I1056320
ssS'JACKSON CHARLENE R'
p61
(dp62
g3
I258
sg4
g5
sg6
F0.14012738853503184
sg7
I10181
sg8
I00
sg9
g5
sg10
g5
sg11
g5
sg12
I117
sg13
g5
sg14
I56
sg15
I2435
sg16
g5
sg17
I250000
sg18
I725735
sg19
I25
sg20
I19
sg21
I540672
sg22
I288558
sg23
g61
sg24
I551174
sg25
I185063
ssS'WESTFAHL RICHARD K'
p63
(dp64
g3
g5
sg4
g5
sg6
g28
sg7
I51870
sg8
I00
sg9
I-10800
sg10
I256191
sg11
g5
sg12
g5
sg13
g5
sg14
g5
sg15
I401130
sg16
g5
sg17
g5
sg18
I384930
sg19
g5
sg20
g5
sg21
I384930
sg22
I63744
sg23
g63
sg24
I762135
sg25
g5
ssS'WALTERS GARETH W'
p65
(dp66
g3
g5
sg4
I53625
sg6
g28
sg7
I33785
sg8
I00
sg9
g5
sg10
g5
sg11
g5
sg12
g5
sg13
g5
sg14
g5
sg15
g5
sg16
g5
sg17
g5
sg18
I1030329
sg19
g5
sg20
g5
sg21
g5
sg22
g5
sg23
g65
sg24
I87410
sg25
I1030329
ssS'WALLS JR ROBERT H'
p67
(dp68
g3
I671
sg4
g5
sg6
F0.0208078335373317
sg7
I50936
sg8
I00
sg9
g5
sg10
I540751
sg11
g5
sg12
I215
sg13
g5
sg14
I146
sg15
I2
sg16
g5
sg17
I850000
sg18
I5898997
sg19
I17
sg20
I0
sg21
I1552453
sg22
I357091
sg23
g67
sg24
I1798780
sg25
I4346544
ssS'KITCHEN LOUISE'
p69
(dp70
g3
I8305
sg4
g5
sg6
F0.044353633011063494
sg7
I5774
sg8
I00
sg9
g5
sg10
g5
sg11
g5
sg12
I3669
sg13
g5
sg14
I1728
sg15
I93925
sg16
g5
sg17
I3100000
sg18
I547143
sg19
I251
sg20
I194
sg21
I466101
sg22
I271442
sg23
g69
sg24
I3471141
sg25
I81042
ssS'CHAN RONNIE'
p71
(dp72
g3
g5
sg4
g5
sg6
g28
sg7
g5
sg8
I00
sg9
I-98784
sg10
g5
sg11
I-32460
sg12
g5
sg13
g5
sg14
g5
sg15
g5
sg16
I98784
sg17
g5
sg18
g5
sg19
g5
sg20
g5
sg21
I32460
sg22
g5
sg23
g71
sg24
g5
sg25
g5
ssS'BELFER ROBERT'
p73
(dp74
g3
g5
sg4
I-102500
sg6
g28
sg7
g5
sg8
I00
sg9
g5
sg10
g5
sg11
I44093
sg12
g5
sg13
g5
sg14
g5
sg15
g5
sg16
I3285
sg17
g5
sg18
I-44093
sg19
g5
sg20
g5
sg21
g5
sg22
g5
sg23
g73
sg24
I102500
sg25
I3285
ssS'SHANKMAN JEFFREY A'
p75
(dp76
g3
I3221
sg4
g5
sg6
F0.029989833954591663
sg7
I178979
sg8
I00
sg9
g5
sg10
I554422
sg11
g5
sg12
I1730
sg13
g5
sg14
I2681
sg15
I1191
sg16
g5
sg17
I2000000
sg18
I2072035
sg19
I94
sg20
I83
sg21
I630137
sg22
I304110
sg23
g75
sg24
I3038702
sg25
I1441898
ssS'WODRASKA JOHN'
p77
(dp78
g3
g5
sg4
g5
sg6
g28
sg7
g5
sg8
I00
sg9
g5
sg10
g5
sg11
g5
sg12
g5
sg13
g5
sg14
g5
sg15
I189583
sg16
g5
sg17
g5
sg18
g5
sg19
g5
sg20
g5
sg21
g5
sg22
g5
sg23
g77
sg24
I189583
sg25
g5
ssS'BERGSIEKER RICHARD P'
p79
(dp80
g3
I383
sg4
g5
sg6
F0.00904977375565611
sg7
I59175
sg8
I00
sg9
I-485813
sg10
I180250
sg11
g5
sg12
I233
sg13
g5
sg14
I59
sg15
I427316
sg16
g5
sg17
I250000
sg18
I659249
sg19
I4
sg20
I0
sg21
I659249
sg22
I187922
sg23
g79
sg24
I618850
sg25
g5
ssS'URQUHART JOHN A'
p81
(dp82
g3
g5
sg4
g5
sg6
g28
sg7
I228656
sg8
I00
sg9
I-36666
sg10
g5
sg11
g5
sg12
g5
sg13
g5
sg14
g5
sg15
g5
sg16
I36666
sg17
g5
sg18
g5
sg19
g5
sg20
g5
sg21
g5
sg22
g5
sg23
g81
sg24
I228656
sg25
g5
ssS'BIBI PHILIPPE A'
p83
(dp84
g3
I1607
sg4
g5
sg6
F0.018822100789313904
sg7
I38559
sg8
I00
sg9
g5
sg10
I369721
sg11
g5
sg12
I1336
sg13
g5
sg14
I40
sg15
I425688
sg16
g5
sg17
I1000000
sg18
I1843816
sg19
I23
sg20
I8
sg21
I378082
sg22
I213625
sg23
g83
sg24
I2047593
sg25
I1465734
ssS'RIEKER PAULA H'
p85
(dp86
g3
I1328
sg4
I214678
sg6
F0.058865248226950356
sg7
I33271
sg8
I01
sg9
I-100000
sg10
g5
sg11
g5
sg12
I1258
sg13
g5
sg14
I82
sg15
I1950
sg16
g5
sg17
I700000
sg18
I1918887
sg19
I35
sg20
I48
sg21
I283649
sg22
I249201
sg23
g85
sg24
I1099100
sg25
I1635238
ssS'WHALEY DAVID A'
p87
(dp88
g3
g5
sg4
g5
sg6
g28
sg7
g5
sg8
I00
sg9
g5
sg10
g5
sg11
g5
sg12
g5
sg13
g5
sg14
g5
sg15
g5
sg16
g5
sg17
g5
sg18
I98718
sg19
g5
sg20
g5
sg21
g5
sg22
g5
sg23
g87
sg24
g5
sg25
I98718
ssS'BECK SALLY W'
p89
(dp90
g3
I7315
sg4
g5
sg6
F0.0454623434551381
sg7
I37172
sg8
I00
sg9
g5
sg10
g5
sg11
g5
sg12
I2639
sg13
g5
sg14
I4343
sg15
I566
sg16
g5
sg17
I700000
sg18
I126027
sg19
I144
sg20
I386
sg21
I126027
sg22
I231330
sg23
g89
sg24
I969068
sg25
g5
ssS'HAUG DAVID L'
p91
(dp92
g3
I573
sg4
g5
sg6
F0.018581081081081082
sg7
I475
sg8
I00
sg9
g5
sg10
g5
sg11
g5
sg12
I471
sg13
g5
sg14
I19
sg15
g5
sg16
g5
sg17
g5
sg18
I2217299
sg19
I4
sg20
I7
sg21
I2217299
sg22
g5
sg23
g91
sg24
I475
sg25
g5
ssS'ECHOLS JOHN B'
p93
(dp94
g3
g5
sg4
g5
sg6
g28
sg7
I21530
sg8
I00
sg9
g5
sg10
I2234774
sg11
g5
sg12
g5
sg13
g5
sg14
g5
sg15
I53775
sg16
g5
sg17
I200000
sg18
I1008941
sg19
g5
sg20
g5
sg21
I407503
sg22
I182245
sg23
g93
sg24
I2692324
sg25
I601438
ssS'MENDELSOHN JOHN'
p95
(dp96
g3
g5
sg4
g5
sg6
g28
sg7
I148
sg8
I00
sg9
I-103750
sg10
g5
sg11
g5
sg12
g5
sg13
g5
sg14
g5
sg15
g5
sg16
I103750
sg17
g5
sg18
g5
sg19
g5
sg20
g5
sg21
g5
sg22
g5
sg23
g95
sg24
I148
sg25
g5
ssS'HICKERSON GARY J'
p97
(dp98
g3
I1320
sg4
g5
sg6
F0.030438010393466965
sg7
I98849
sg8
I00
sg9
g5
sg10
I69223
sg11
g5
sg12
I900
sg13
g5
sg14
I27
sg15
I1936
sg16
g5
sg17
I1700000
sg18
I441096
sg19
I40
sg20
I1
sg21
I441096
sg22
I211788
sg23
g97
sg24
I2081796
sg25
g5
ssS'CLINE KENNETH W'
p99
(dp100
g3
g5
sg4
g5
sg6
g28
sg7
g5
sg8
I00
sg9
g5
sg10
g5
sg11
I-472568
sg12
g5
sg13
g5
sg14
g5
sg15
g5
sg16
g5
sg17
g5
sg18
I189518
sg19
g5
sg20
g5
sg21
I662086
sg22
g5
sg23
g99
sg24
g5
sg25
g5
ssS'LEWIS RICHARD'
p101
(dp102
g3
I952
sg4
g5
sg6
F0.010224948875255624
sg7
g5
sg8
I00
sg9
g5
sg10
g5
sg11
g5
sg12
I739
sg13
g5
sg14
I26
sg15
g5
sg16
g5
sg17
g5
sg18
I850477
sg19
I10
sg20
I0
sg21
g5
sg22
g5
sg23
g101
sg24
g5
sg25
I850477
ssS'HAYES ROBERT E'
p103
(dp104
g3
I504
sg4
I7961
sg6
F0.031007751937984496
sg7
g5
sg8
I00
sg9
g5
sg10
g5
sg11
g5
sg12
I50
sg13
g5
sg14
I12
sg15
g5
sg16
g5
sg17
g5
sg18
I151418
sg19
I16
sg20
I0
sg21
I151418
sg22
g5
sg23
g103
sg24
I7961
sg25
g5
ssS'MCCARTY DANNY J'
p105
(dp106
g3
I1433
sg4
g5
sg6
F0.016383495145631068
sg7
g5
sg8
I00
sg9
g5
sg10
g5
sg11
g5
sg12
I508
sg13
g5
sg14
I215
sg15
g5
sg16
g5
sg17
g5
sg18
I758931
sg19
I25
sg20
I2
sg21
I94556
sg22
g5
sg23
g105
sg24
g5
sg25
I664375
ssS'KOPPER MICHAEL J'
p107
(dp108
g3
g5
sg4
g5
sg6
g28
sg7
I118134
sg8
I01
sg9
g5
sg10
I602671
sg11
g5
sg12
g5
sg13
g5
sg14
g5
sg15
I907502
sg16
g5
sg17
I800000
sg18
I985032
sg19
g5
sg20
g5
sg21
I985032
sg22
I224305
sg23
g107
sg24
I2652612
sg25
g5
ssS'LEFF DANIEL P'
p109
(dp110
g3
I2822
sg4
g5
sg6
F0.028076256499133447
sg7
g5
sg8
I00
sg9
g5
sg10
I1387399
sg11
g5
sg12
I2672
sg13
g5
sg14
I63
sg15
I3083
sg16
g5
sg17
I1000000
sg18
I360528
sg19
I67
sg20
I14
sg21
I360528
sg22
I273746
sg23
g109
sg24
I2664228
sg25
g5
ssS'LAVORATO JOHN J'
p111
(dp112
g3
I7259
sg4
g5
sg6
F0.09538805363673304
sg7
I49537
sg8
I00
sg9
g5
sg10
I2035380
sg11
g5
sg12
I3962
sg13
g5
sg14
I2585
sg15
I1552
sg16
g5
sg17
I8000000
sg18
I5167144
sg19
I528
sg20
I411
sg21
I1008149
sg22
I339288
sg23
g111
sg24
I10425757
sg25
I4158995
ssS'BERBERIAN DAVID'
p113
(dp114
g3
g5
sg4
g5
sg6
g28
sg7
I11892
sg8
I00
sg9
g5
sg10
g5
sg11
g5
sg12
g5
sg13
g5
sg14
g5
sg15
g5
sg16
g5
sg17
g5
sg18
I2493616
sg19
g5
sg20
g5
sg21
I869220
sg22
I216582
sg23
g113
sg24
I228474
sg25
I1624396
ssS'DETMERING TIMOTHY J'
p115
(dp116
g3
g5
sg4
I875307
sg6
g28
sg7
I52255
sg8
I00
sg9
I-775241
sg10
I415657
sg11
I-315068
sg12
g5
sg13
g5
sg14
g5
sg15
I1105
sg16
g5
sg17
I425000
sg18
I2027865
sg19
g5
sg20
g5
sg21
I315068
sg22
I210500
sg23
g115
sg24
I1204583
sg25
I2027865
ssS'WAKEHAM JOHN'
p117
(dp118
g3
g5
sg4
g5
sg6
g28
sg7
I103773
sg8
I00
sg9
g5
sg10
g5
sg11
g5
sg12
g5
sg13
g5
sg14
g5
sg15
g5
sg16
I109298
sg17
g5
sg18
g5
sg19
g5
sg20
g5
sg21
g5
sg22
g5
sg23
g117
sg24
I213071
sg25
g5
ssS'POWERS WILLIAM'
p119
(dp120
g3
I653
sg4
g5
sg6
F0.0
sg7
g5
sg8
I00
sg9
I-17500
sg10
g5
sg11
g5
sg12
I12
sg13
g5
sg14
I26
sg15
g5
sg16
I17500
sg17
g5
sg18
g5
sg19
I0
sg20
I0
sg21
g5
sg22
g5
sg23
g119
sg24
g5
sg25
g5
ssS'GOLD JOSEPH'
p121
(dp122
g3
g5
sg4
g5
sg6
g28
sg7
g5
sg8
I00
sg9
g5
sg10
I304805
sg11
g5
sg12
g5
sg13
g5
sg14
g5
sg15
I819288
sg16
g5
sg17
I750000
sg18
I877611
sg19
g5
sg20
g5
sg21
I441096
sg22
I272880
sg23
g121
sg24
I2146973
sg25
I436515
ssS'BANNANTINE JAMES M'
p123
(dp124
g3
I566
sg4
g5
sg6
F0.06554621848739496
sg7
I56301
sg8
I00
sg9
I-5104
sg10
g5
sg11
I-560222
sg12
I465
sg13
g5
sg14
I29
sg15
I864523
sg16
g5
sg17
g5
sg18
I5243487
sg19
I39
sg20
I0
sg21
I1757552
sg22
I477
sg23
g123
sg24
I916197
sg25
I4046157
ssS'DUNCAN JOHN H'
p125
(dp126
g3
g5
sg4
g5
sg6
g28
sg7
g5
sg8
I00
sg9
I-25000
sg10
g5
sg11
g5
sg12
g5
sg13
g5
sg14
g5
sg15
g5
sg16
I102492
sg17
g5
sg18
I371750
sg19
g5
sg20
g5
sg21
g5
sg22
g5
sg23
g125
sg24
I77492
sg25
I371750
ssS'SHAPIRO RICHARD S'
p127
(dp128
g3
I15149
sg4
g5
sg6
F0.00849425568320704
sg7
I137767
sg8
I00
sg9
g5
sg10
g5
sg11
g5
sg12
I4527
sg13
g5
sg14
I1215
sg15
I705
sg16
g5
sg17
I650000
sg18
I987001
sg19
I74
sg20
I65
sg21
I379164
sg22
I269076
sg23
g127
sg24
I1057548
sg25
I607837
ssS'SHERRIFF JOHN R'
p129
(dp130
g3
I3187
sg4
g5
sg6
F0.01555352241537054
sg7
g5
sg8
I00
sg9
g5
sg10
I554422
sg11
g5
sg12
I2103
sg13
g5
sg14
I92
sg15
I1852186
sg16
g5
sg17
I1500000
sg18
I3128982
sg19
I28
sg20
I23
sg21
I1293424
sg22
I428780
sg23
g129
sg24
I4335388
sg25
I1835558
ssS'SHELBY REX'
p131
(dp132
g3
I225
sg4
g5
sg6
F0.10227272727272728
sg7
I22884
sg8
I01
sg9
I-4167
sg10
g5
sg11
g5
sg12
I91
sg13
g5
sg14
I39
sg15
I1573324
sg16
g5
sg17
I200000
sg18
I2493616
sg19
I13
sg20
I14
sg21
I869220
sg22
I211844
sg23
g131
sg24
I2003885
sg25
I1624396
ssS'LEMAISTRE CHARLES'
p133
(dp134
g3
g5
sg4
g5
sg6
g28
sg7
g5
sg8
I00
sg9
I-25000
sg10
g5
sg11
g5
sg12
g5
sg13
g5
sg14
g5
sg15
g5
sg16
I112492
sg17
g5
sg18
I412878
sg19
g5
sg20
g5
sg21
g5
sg22
g5
sg23
g133
sg24
I87492
sg25
I412878
ssS'DEFFNER JOSEPH M'
p135
(dp136
g3
I714
sg4
g5
sg6
F0.15101522842639595
sg7
I41626
sg8
I00
sg9
g5
sg10
I335349
sg11
g5
sg12
I552
sg13
g5
sg14
I74
sg15
I25553
sg16
g5
sg17
I600000
sg18
I159211
sg19
I115
sg20
I4
sg21
I141833
sg22
I206121
sg23
g135
sg24
I1208649
sg25
I17378
ssS'KISHKILL JOSEPH G'
p137
(dp138
g3
g5
sg4
g5
sg6
g28
sg7
I116335
sg8
I00
sg9
I-51042
sg10
g5
sg11
g5
sg12
g5
sg13
g5
sg14
g5
sg15
I465357
sg16
g5
sg17
g5
sg18
I1034346
sg19
g5
sg20
g5
sg21
I1034346
sg22
I174246
sg23
g137
sg24
I704896
sg25
g5
ssS'WHALLEY LAWRENCE G'
p139
(dp140
g3
I6019
sg4
g5
sg6
F0.03193916349809886
sg7
I57838
sg8
I00
sg9
g5
sg10
I808346
sg11
g5
sg12
I3920
sg13
g5
sg14
I556
sg15
I301026
sg16
g5
sg17
I3000000
sg18
I6079137
sg19
I186
sg20
I24
sg21
I2796177
sg22
I510364
sg23
g139
sg24
I4677574
sg25
I3282960
ssS'MCCONNELL MICHAEL S'
p141
(dp142
g3
I3329
sg4
g5
sg6
F0.047109207708779445
sg7
I81364
sg8
I00
sg9
g5
sg10
I554422
sg11
g5
sg12
I2189
sg13
g5
sg14
I2742
sg15
I540
sg16
g5
sg17
I1100000
sg18
I3101279
sg19
I92
sg20
I194
sg21
I1478269
sg22
I365038
sg23
g141
sg24
I2101364
sg25
I1623010
ssS'PIRO JIM'
p143
(dp144
g3
I58
sg4
g5
sg6
F0.013513513513513514
sg7
g5
sg8
I00
sg9
g5
sg10
g5
sg11
g5
sg12
I3
sg13
g5
sg14
I16
sg15
g5
sg16
g5
sg17
g5
sg18
I47304
sg19
I0
sg20
I1
sg21
I47304
sg22
g5
sg23
g143
sg24
g5
sg25
g5
ssS'DELAINEY DAVID W'
p145
(dp146
g3
I3093
sg4
g5
sg6
F0.10954235637779941
sg7
I86174
sg8
I01
sg9
g5
sg10
I1294981
sg11
g5
sg12
I2097
sg13
g5
sg14
I3069
sg15
I1661
sg16
g5
sg17
I3000000
sg18
I3614261
sg19
I66
sg20
I609
sg21
I1323148
sg22
I365163
sg23
g145
sg24
I4747979
sg25
I2291113
ssS'SULLIVAN-SHAKLOVITZ COLLEEN'
p147
(dp148
g3
g5
sg4
I181993
sg6
g28
sg7
g5
sg8
I00
sg9
g5
sg10
I554422
sg11
g5
sg12
g5
sg13
g5
sg14
g5
sg15
I162
sg16
g5
sg17
I100000
sg18
I1362375
sg19
g5
sg20
g5
sg21
g5
sg22
I162779
sg23
g147
sg24
I999356
sg25
I1362375
ssS'WROBEL BRUCE'
p149
(dp150
g3
g5
sg4
g5
sg6
g28
sg7
g5
sg8
I00
sg9
g5
sg10
g5
sg11
g5
sg12
g5
sg13
g5
sg14
g5
sg15
g5
sg16
g5
sg17
g5
sg18
I139130
sg19
g5
sg20
g5
sg21
g5
sg22
g5
sg23
g149
sg24
g5
sg25
I139130
ssS'LINDHOLM TOD A'
p151
(dp152
g3
g5
sg4
I204075
sg6
g28
sg7
I57727
sg8
I00
sg9
g5
sg10
I175000
sg11
g5
sg12
g5
sg13
g5
sg14
g5
sg15
I2630
sg16
g5
sg17
I200000
sg18
I3064208
sg19
g5
sg20
g5
sg21
I514847
sg22
I236457
sg23
g151
sg24
I875889
sg25
I2549361
ssS'MEYER JEROME J'
p153
(dp154
g3
g5
sg4
g5
sg6
g28
sg7
I2151
sg8
I00
sg9
I-38346
sg10
g5
sg11
g5
sg12
g5
sg13
g5
sg14
g5
sg15
g5
sg16
I38346
sg17
g5
sg18
g5
sg19
g5
sg20
g5
sg21
g5
sg22
g5
sg23
g153
sg24
I2151
sg25
g5
ssS'LAY KENNETH L'
p155
(dp156
g3
I4273
sg4
I202911
sg6
F0.03225806451612903
sg7
I99832
sg8
I01
sg9
I-300000
sg10
I3600000
sg11
g5
sg12
I2411
sg13
I81525000
sg14
I36
sg15
I10359729
sg16
g5
sg17
I7000000
sg18
I49110078
sg19
I123
sg20
I16
sg21
I14761694
sg22
I1072321
sg23
g155
sg24
I103559793
sg25
I34348384
ssS'BUTTS ROBERT H'
p157
(dp158
g3
g5
sg4
g5
sg6
g28
sg7
I9410
sg8
I00
sg9
I-75000
sg10
I175000
sg11
g5
sg12
g5
sg13
g5
sg14
g5
sg15
I150656
sg16
g5
sg17
I750000
sg18
I417619
sg19
g5
sg20
g5
sg21
I417619
sg22
I261516
sg23
g157
sg24
I1271582
sg25
g5
ssS'OLSON CINDY K'
p159
(dp160
g3
I1184
sg4
I77716
sg6
F0.02831715210355987
sg7
I63791
sg8
I00
sg9
g5
sg10
I100000
sg11
g5
sg12
I856
sg13
g5
sg14
I52
sg15
I972
sg16
g5
sg17
I750000
sg18
I2606763
sg19
I20
sg20
I15
sg21
I969729
sg22
I329078
sg23
g159
sg24
I1321557
sg25
I1637034
ssS'MCDONALD REBECCA'
p161
(dp162
g3
I894
sg4
g5
sg6
F0.06063947078280044
sg7
g5
sg8
I00
sg9
g5
sg10
g5
sg11
g5
sg12
I720
sg13
g5
sg14
I13
sg15
g5
sg16
g5
sg17
g5
sg18
I1691366
sg19
I54
sg20
I1
sg21
I934065
sg22
g5
sg23
g161
sg24
g5
sg25
I757301
ssS'CUMBERLAND MICHAEL S'
p163
(dp164
g3
g5
sg4
g5
sg6
g28
sg7
I22344
sg8
I00
sg9
g5
sg10
I275000
sg11
g5
sg12
g5
sg13
g5
sg14
g5
sg15
I713
sg16
g5
sg17
I325000
sg18
I207940
sg19
g5
sg20
g5
sg21
I207940
sg22
I184899
sg23
g163
sg24
I807956
sg25
g5
ssS'GAHN ROBERT S'
p165
(dp166
g3
g5
sg4
I73122
sg6
g28
sg7
I50080
sg8
I00
sg9
I-1042
sg10
g5
sg11
g5
sg12
g5
sg13
g5
sg14
g5
sg15
I76547
sg16
g5
sg17
I509870
sg18
I318607
sg19
g5
sg20
g5
sg21
I235370
sg22
I192008
sg23
g165
sg24
I900585
sg25
I83237
ssS'MCCLELLAN GEORGE'
p167
(dp168
g3
I1744
sg4
g5
sg6
F0.029001673173452314
sg7
I228763
sg8
I00
sg9
I-125000
sg10
g5
sg11
g5
sg12
I1469
sg13
g5
sg14
I49
sg15
I51587
sg16
g5
sg17
I900000
sg18
I947861
sg19
I52
sg20
I0
sg21
I441096
sg22
I263413
sg23
g167
sg24
I1318763
sg25
I506765
ssS'HERMANN ROBERT J'
p169
(dp170
g3
g5
sg4
g5
sg6
g28
sg7
I48357
sg8
I00
sg9
I-280000
sg10
I150000
sg11
g5
sg12
g5
sg13
g5
sg14
g5
sg15
I416441
sg16
g5
sg17
I700000
sg18
I668132
sg19
g5
sg20
g5
sg21
I480632
sg22
I262663
sg23
g169
sg24
I1297461
sg25
I187500
ssS'SCRIMSHAW MATTHEW'
p171
(dp172
g3
g5
sg4
g5
sg6
g28
sg7
g5
sg8
I00
sg9
g5
sg10
g5
sg11
g5
sg12
g5
sg13
g5
sg14
g5
sg15
g5
sg16
g5
sg17
g5
sg18
I759557
sg19
g5
sg20
g5
sg21
g5
sg22
g5
sg23
g171
sg24
g5
sg25
I759557
ssS'GATHMANN WILLIAM D'
p173
(dp174
g3
g5
sg4
g5
sg6
g28
sg7
g5
sg8
I00
sg9
g5
sg10
g5
sg11
I-72419
sg12
g5
sg13
g5
sg14
g5
sg15
g5
sg16
g5
sg17
g5
sg18
I1945360
sg19
g5
sg20
g5
sg21
I264013
sg22
g5
sg23
g173
sg24
g5
sg25
I1753766
ssS'HAEDICKE MARK E'
p175
(dp176
g3
I4009
sg4
I2157527
sg6
F0.04050420168067227
sg7
I76169
sg8
I00
sg9
I-934484
sg10
I983346
sg11
I-329825
sg12
I1847
sg13
g5
sg14
I1941
sg15
I52382
sg16
g5
sg17
I1150000
sg18
I803094
sg19
I180
sg20
I61
sg21
I524169
sg22
I374125
sg23
g175
sg24
I3859065
sg25
I608750
ssS'BOWEN JR RAYMOND M'
p177
(dp178
g3
I1858
sg4
g5
sg6
F0.08222811671087533
sg7
I65907
sg8
I01
sg9
I-833
sg10
I974293
sg11
g5
sg12
I1593
sg13
g5
sg14
I27
sg15
I1621
sg16
g5
sg17
I1350000
sg18
I252055
sg19
I140
sg20
I15
sg21
I252055
sg22
I278601
sg23
g177
sg24
I2669589
sg25
g5
ssS'GILLIS JOHN'
p179
(dp180
g3
g5
sg4
g5
sg6
g28
sg7
g5
sg8
I00
sg9
g5
sg10
g5
sg11
g5
sg12
g5
sg13
g5
sg14
g5
sg15
g5
sg16
g5
sg17
g5
sg18
I85641
sg19
g5
sg20
g5
sg21
I75838
sg22
g5
sg23
g179
sg24
g5
sg25
I9803
ssS'FITZGERALD JAY L'
p181
(dp182
g3
I936
sg4
g5
sg6
F0.009453781512605041
sg7
I23870
sg8
I00
sg9
g5
sg10
I556416
sg11
g5
sg12
I723
sg13
g5
sg14
I16
sg15
I285414
sg16
g5
sg17
I350000
sg18
I1621236
sg19
I1
sg20
I8
sg21
I956775
sg22
I199157
sg23
g181
sg24
I1414857
sg25
I664461
ssS'MORAN MICHAEL P'
p183
(dp184
g3
I672
sg4
g5
sg6
F0.0
sg7
g5
sg8
I00
sg9
g5
sg10
g5
sg11
g5
sg12
I127
sg13
g5
sg14
I19
sg15
g5
sg16
g5
sg17
g5
sg18
I221141
sg19
I0
sg20
I0
sg21
I161602
sg22
g5
sg23
g183
sg24
g5
sg25
I59539
ssS'REDMOND BRIAN L'
p185
(dp186
g3
I1671
sg4
g5
sg6
F0.13372093023255813
sg7
I14689
sg8
I00
sg9
g5
sg10
g5
sg11
g5
sg12
I1063
sg13
g5
sg14
I221
sg15
g5
sg16
g5
sg17
g5
sg18
I7890324
sg19
I204
sg20
I49
sg21
I381285
sg22
I96840
sg23
g185
sg24
I111529
sg25
I7509039
ssS'BAZELIDES PHILIP J'
p187
(dp188
g3
g5
sg4
I684694
sg6
g28
sg7
g5
sg8
I00
sg9
g5
sg10
I93750
sg11
g5
sg12
g5
sg13
g5
sg14
g5
sg15
I874
sg16
g5
sg17
g5
sg18
I1599641
sg19
g5
sg20
g5
sg21
g5
sg22
I80818
sg23
g187
sg24
I860136
sg25
I1599641
ssS'BELDEN TIMOTHY N'
p189
(dp190
g3
I7991
sg4
I2144013
sg6
F0.03964601769911504
sg7
I17355
sg8
I01
sg9
I-2334434
sg10
g5
sg11
g5
sg12
I5521
sg13
g5
sg14
I484
sg15
I210698
sg16
g5
sg17
I5249999
sg18
I1110705
sg19
I228
sg20
I108
sg21
I157569
sg22
I213999
sg23
g189
sg24
I5501630
sg25
I953136
ssS'DURAN WILLIAM D'
p191
(dp192
g3
I904
sg4
g5
sg6
F0.11899563318777293
sg7
I25785
sg8
I00
sg9
g5
sg10
I1105218
sg11
g5
sg12
I599
sg13
g5
sg14
I12
sg15
I1568
sg16
g5
sg17
I750000
sg18
I1640910
sg19
I106
sg20
I3
sg21
I189041
sg22
I210692
sg23
g191
sg24
I2093263
sg25
I1451869
ssS'THORN TERENCE H'
p193
(dp194
g3
I266
sg4
I16586
sg6
F0.0
sg7
I46145
sg8
I00
sg9
g5
sg10
I200000
sg11
g5
sg12
I73
sg13
g5
sg14
I41
sg15
I426629
sg16
g5
sg17
g5
sg18
I4817796
sg19
I0
sg20
I0
sg21
I365320
sg22
I222093
sg23
g193
sg24
I911453
sg25
I4452476
ssS'FASTOW ANDREW S'
p195
(dp196
g3
g5
sg4
g5
sg6
g28
sg7
I55921
sg8
I01
sg9
I-1386055
sg10
I1736055
sg11
g5
sg12
g5
sg13
g5
sg14
g5
sg15
I277464
sg16
g5
sg17
I1300000
sg18
I1794412
sg19
g5
sg20
g5
sg21
I1794412
sg22
I440698
sg23
g195
sg24
I2424083
sg25
g5
ssS'FOY JOE'
p197
(dp198
g3
I57
sg4
I181755
sg6
F0.0
sg7
g5
sg8
I00
sg9
g5
sg10
g5
sg11
g5
sg12
I2
sg13
g5
sg14
I13
sg15
g5
sg16
g5
sg17
g5
sg18
I343434
sg19
I0
sg20
I0
sg21
g5
sg22
g5
sg23
g197
sg24
I181755
sg25
I343434
ssS'CALGER CHRISTOPHER F'
p199
(dp200
g3
I2598
sg4
g5
sg6
F0.08169219547775347
sg7
I35818
sg8
I01
sg9
I-262500
sg10
I375304
sg11
g5
sg12
I2188
sg13
g5
sg14
I144
sg15
I486
sg16
g5
sg17
I1250000
sg18
I126027
sg19
I199
sg20
I25
sg21
I126027
sg22
I240189
sg23
g199
sg24
I1639297
sg25
g5
ssS'RICE KENNETH D'
p201
(dp202
g3
I905
sg4
g5
sg6
F0.04983748645720477
sg7
I46950
sg8
I01
sg9
I-3504386
sg10
I1617011
sg11
g5
sg12
I864
sg13
g5
sg14
I18
sg15
I174839
sg16
g5
sg17
I1750000
sg18
I22542539
sg19
I42
sg20
I4
sg21
I2748364
sg22
I420636
sg23
g201
sg24
I505050
sg25
I19794175
ssS'KAMINSKI WINCENTY J'
p203
(dp204
g3
I4607
sg4
g5
sg6
F0.011172595520421607
sg7
I83585
sg8
I00
sg9
g5
sg10
I323466
sg11
g5
sg12
I583
sg13
g5
sg14
I14368
sg15
I4669
sg16
g5
sg17
I400000
sg18
I976037
sg19
I41
sg20
I171
sg21
I126027
sg22
I275101
sg23
g203
sg24
I1086821
sg25
I850010
ssS'COX DAVID'
p205
(dp206
g3
I102
sg4
g5
sg6
F0.02962962962962963
sg7
I27861
sg8
I00
sg9
I-41250
sg10
g5
sg11
g5
sg12
I71
sg13
g5
sg14
I33
sg15
I494
sg16
g5
sg17
I800000
sg18
I495633
sg19
I0
sg20
I4
sg21
I378082
sg22
I314288
sg23
g205
sg24
I1101393
sg25
I117551
ssS'OVERDYKE JR JERE C'
p207
(dp208
g3
g5
sg4
g5
sg6
g28
sg7
I18834
sg8
I00
sg9
g5
sg10
I135836
sg11
g5
sg12
g5
sg13
g5
sg14
g5
sg15
I176
sg16
g5
sg17
g5
sg18
I7307594
sg19
g5
sg20
g5
sg21
I2041016
sg22
I94941
sg23
g207
sg24
I249787
sg25
I5266578
ssS'PEREIRA PAULO V. FERRAZ'
p209
(dp210
g3
g5
sg4
g5
sg6
g28
sg7
I27942
sg8
I00
sg9
I-101250
sg10
g5
sg11
g5
sg12
g5
sg13
g5
sg14
g5
sg15
g5
sg16
I101250
sg17
g5
sg18
g5
sg19
g5
sg20
g5
sg21
g5
sg22
g5
sg23
g209
sg24
I27942
sg25
g5
ssS'STABLER FRANK'
p211
(dp212
g3
g5
sg4
g5
sg6
g28
sg7
I16514
sg8
I00
sg9
g5
sg10
g5
sg11
g5
sg12
g5
sg13
g5
sg14
g5
sg15
I356071
sg16
g5
sg17
I500000
sg18
I511734
sg19
g5
sg20
g5
sg21
I511734
sg22
I239502
sg23
g211
sg24
I1112087
sg25
g5
ssS'SKILLING JEFFREY K'
p213
(dp214
g3
I3627
sg4
g5
sg6
F0.03159303882195449
sg7
I29336
sg8
I01
sg9
g5
sg10
I1920000
sg11
g5
sg12
I2042
sg13
g5
sg14
I108
sg15
I22122
sg16
g5
sg17
I5600000
sg18
I26093672
sg19
I88
sg20
I30
sg21
I6843672
sg22
I1111258
sg23
g213
sg24
I8682716
sg25
I19250000
ssS'BLAKE JR. NORMAN P'
p215
(dp216
g3
g5
sg4
g5
sg6
g28
sg7
I1279
sg8
I00
sg9
I-113784
sg10
g5
sg11
g5
sg12
g5
sg13
g5
sg14
g5
sg15
g5
sg16
I113784
sg17
g5
sg18
g5
sg19
g5
sg20
g5
sg21
g5
sg22
g5
sg23
g215
sg24
I1279
sg25
g5
ssS'SHERRICK JEFFREY B'
p217
(dp218
g3
I613
sg4
g5
sg6
F0.08934169278996865
sg7
g5
sg8
I00
sg9
g5
sg10
g5
sg11
g5
sg12
I583
sg13
g5
sg14
I25
sg15
g5
sg16
g5
sg17
g5
sg18
I1832468
sg19
I39
sg20
I18
sg21
I405999
sg22
g5
sg23
g217
sg24
g5
sg25
I1426469
ssS'PRENTICE JAMES'
p219
(dp220
g3
g5
sg4
I564348
sg6
g28
sg7
g5
sg8
I00
sg9
g5
sg10
g5
sg11
g5
sg12
g5
sg13
g5
sg14
g5
sg15
g5
sg16
g5
sg17
g5
sg18
I1095040
sg19
g5
sg20
g5
sg21
I208809
sg22
g5
sg23
g219
sg24
I564348
sg25
I886231
ssS'GRAY RODNEY'
p221
(dp222
g3
g5
sg4
I93585
sg6
g28
sg7
g5
sg8
I00
sg9
g5
sg10
I365625
sg11
g5
sg12
g5
sg13
g5
sg14
g5
sg15
I680833
sg16
g5
sg17
g5
sg18
g5
sg19
g5
sg20
g5
sg21
g5
sg22
I6615
sg23
g221
sg24
I1146658
sg25
g5
ssS'PICKERING MARK R'
p223
(dp224
g3
I898
sg4
g5
sg6
F0.007253886010362694
sg7
I31653
sg8
I00
sg9
g5
sg10
g5
sg11
g5
sg12
I728
sg13
I400000
sg14
I67
sg15
g5
sg16
g5
sg17
I300000
sg18
I28798
sg19
I7
sg20
I0
sg21
g5
sg22
I655037
sg23
g223
sg24
I1386690
sg25
I28798
ssS'NOLES JAMES L'
p225
(dp226
g3
g5
sg4
I774401
sg6
g28
sg7
g5
sg8
I00
sg9
g5
sg10
g5
sg11
I-94556
sg12
g5
sg13
g5
sg14
g5
sg15
g5
sg16
g5
sg17
g5
sg18
I368705
sg19
g5
sg20
g5
sg21
I463261
sg22
g5
sg23
g225
sg24
I774401
sg25
g5
ssS'KEAN STEVEN J'
p227
(dp228
g3
I12754
sg4
g5
sg6
F0.02700763593501768
sg7
I41953
sg8
I00
sg9
g5
sg10
I300000
sg11
g5
sg12
I3639
sg13
g5
sg14
I6759
sg15
I1231
sg16
g5
sg17
I1000000
sg18
I6153642
sg19
I140
sg20
I387
sg21
I4131594
sg22
I404338
sg23
g227
sg24
I1747522
sg25
I2022048
ssS'FOWLER PEGGY'
p229
(dp230
g3
I517
sg4
g5
sg6
F0.0
sg7
g5
sg8
I00
sg9
g5
sg10
g5
sg11
g5
sg12
I10
sg13
g5
sg14
I36
sg15
g5
sg16
g5
sg17
g5
sg18
I1884748
sg19
I0
sg20
I0
sg21
I560170
sg22
g5
sg23
g229
sg24
g5
sg25
I1324578
ssS'WASAFF GEORGE'
p231
(dp232
g3
I400
sg4
I831299
sg6
F0.06744186046511629
sg7
g5
sg8
I00
sg9
I-583325
sg10
I200000
sg11
g5
sg12
I337
sg13
g5
sg14
I30
sg15
I1425
sg16
g5
sg17
I325000
sg18
I2056427
sg19
I22
sg20
I7
sg21
I388167
sg22
I259996
sg23
g231
sg24
I1034395
sg25
I1668260
ssS'WHITE JR THOMAS E'
p233
(dp234
g3
g5
sg4
g5
sg6
g28
sg7
I81353
sg8
I00
sg9
g5
sg10
g5
sg11
g5
sg12
g5
sg13
g5
sg14
g5
sg15
I1085463
sg16
g5
sg17
I450000
sg18
I15144123
sg19
g5
sg20
g5
sg21
I13847074
sg22
I317543
sg23
g233
sg24
I1934359
sg25
I1297049
ssS'CHRISTODOULOU DIOMEDES'
p235
(dp236
g3
g5
sg4
g5
sg6
g28
sg7
g5
sg8
I00
sg9
g5
sg10
g5
sg11
g5
sg12
g5
sg13
g5
sg14
g5
sg15
g5
sg16
g5
sg17
g5
sg18
I6077885
sg19
g5
sg20
g5
sg21
I950730
sg22
g5
sg23
g235
sg24
g5
sg25
I5127155
ssS'ALLEN PHILLIP K'
p237
(dp238
g3
I2902
sg4
I2869717
sg6
F0.0219737100255052
sg7
I13868
sg8
I00
sg9
I-3081055
sg10
I304805
sg11
I-126027
sg12
I1407
sg13
g5
sg14
I2195
sg15
I152
sg16
g5
sg17
I4175000
sg18
I1729541
sg19
I47
sg20
I65
sg21
I126027
sg22
I201955
sg23
g237
sg24
I4484442
sg25
I1729541
ssS'SHARP VICTORIA T'
p239
(dp240
g3
I3136
sg4
I187469
sg6
F0.009168704156479218
sg7
I116337
sg8
I00
sg9
g5
sg10
I422158
sg11
g5
sg12
I2477
sg13
g5
sg14
I136
sg15
I2401
sg16
g5
sg17
I600000
sg18
I494136
sg19
I24
sg20
I6
sg21
I213063
sg22
I248146
sg23
g239
sg24
I1576511
sg25
I281073
ssS'JAEDICKE ROBERT'
p241
(dp242
g3
g5
sg4
g5
sg6
g28
sg7
g5
sg8
I00
sg9
I-25000
sg10
g5
sg11
I-44093
sg12
g5
sg13
g5
sg14
g5
sg15
g5
sg16
I108750
sg17
g5
sg18
I431750
sg19
g5
sg20
g5
sg21
I44093
sg22
g5
sg23
g241
sg24
I83750
sg25
I431750
ssS'WINOKUR JR. HERBERT S'
p243
(dp244
g3
g5
sg4
g5
sg6
g28
sg7
I1413
sg8
I00
sg9
I-25000
sg10
g5
sg11
g5
sg12
g5
sg13
g5
sg14
g5
sg15
g5
sg16
I108579
sg17
g5
sg18
g5
sg19
g5
sg20
g5
sg21
g5
sg22
g5
sg23
g243
sg24
I84992
sg25
g5
ssS'BROWN MICHAEL'
p245
(dp246
g3
I1486
sg4
g5
sg6
F0.0091683038637852
sg7
I49288
sg8
I00
sg9
g5
sg10
g5
sg11
g5
sg12
I761
sg13
g5
sg14
I41
sg15
g5
sg16
g5
sg17
g5
sg18
g5
sg19
I13
sg20
I1
sg21
g5
sg22
g5
sg23
g245
sg24
I49288
sg25
g5
ssS'BADUM JAMES P'
p247
(dp248
g3
g5
sg4
I178980
sg6
g28
sg7
I3486
sg8
I00
sg9
g5
sg10
g5
sg11
g5
sg12
g5
sg13
g5
sg14
g5
sg15
g5
sg16
g5
sg17
g5
sg18
I257817
sg19
g5
sg20
g5
sg21
g5
sg22
g5
sg23
g247
sg24
I182466
sg25
I257817
ssS'HUGHES JAMES A'
p249
(dp250
g3
I719
sg4
g5
sg6
F0.05312084993359894
sg7
g5
sg8
I00
sg9
g5
sg10
g5
sg11
g5
sg12
I589
sg13
g5
sg14
I34
sg15
g5
sg16
g5
sg17
g5
sg18
I1118394
sg19
I35
sg20
I5
sg21
I363428
sg22
g5
sg23
g249
sg24
g5
sg25
I754966
ssS'REYNOLDS LAWRENCE'
p251
(dp252
g3
g5
sg4
I51365
sg6
g28
sg7
I8409
sg8
I00
sg9
I-200000
sg10
I156250
sg11
I-140264
sg12
g5
sg13
g5
sg14
g5
sg15
I202052
sg16
g5
sg17
I100000
sg18
I4221891
sg19
g5
sg20
g5
sg21
I201483
sg22
I76399
sg23
g251
sg24
I394475
sg25
I4160672
ssS'DIMICHELE RICHARD G'
p253
(dp254
g3
g5
sg4
g5
sg6
g28
sg7
I35812
sg8
I00
sg9
g5
sg10
I694862
sg11
g5
sg12
g5
sg13
g5
sg14
g5
sg15
I374689
sg16
g5
sg17
I1000000
sg18
I8317782
sg19
g5
sg20
g5
sg21
I126027
sg22
I262788
sg23
g253
sg24
I2368151
sg25
I8191755
ssS'BHATNAGAR SANJAY'
p255
(dp256
g3
I523
sg4
g5
sg6
F0.0018115942028985507
sg7
g5
sg8
I00
sg9
g5
sg10
g5
sg11
I15456290
sg12
I463
sg13
g5
sg14
I29
sg15
I137864
sg16
I137864
sg17
g5
sS'total_stock_value'
p257
S'NaN'
p258
sg19
I0
sg20
I1
sg21
I-2604490
sg22
g5
sg23
g255
sg24
I15456290
sg25
I2604490
ssS'CARTER REBECCA C'
p259
(dp260
g3
I312
sg4
g5
sg6
F0.11009174311926606
sg7
g5
sg8
I00
sg9
I-159792
sg10
I75000
sg11
I-307301
sg12
I196
sg13
g5
sg14
I15
sg15
I540
sg16
g5
sg17
I300000
sg18
g5
sg19
I29
sg20
I7
sg21
I307301
sg22
I261809
sg23
g259
sg24
I477557
sg25
g5
ssS'BUCHANAN HAROLD G'
p261
(dp262
g3
I1088
sg4
g5
sg6
F0.0
sg7
I600
sg8
I00
sg9
g5
sg10
I304805
sg11
g5
sg12
I23
sg13
g5
sg14
I125
sg15
I1215
sg16
g5
sg17
I500000
sg18
I1014505
sg19
I0
sg20
I0
sg21
I189041
sg22
I248017
sg23
g261
sg24
I1054637
sg25
I825464
ssS'YEAP SOON'
p263
(dp264
g3
g5
sg4
g5
sg6
g28
sg7
I55097
sg8
I00
sg9
g5
sg10
g5
sg11
g5
sg12
g5
sg13
g5
sg14
g5
sg15
g5
sg16
g5
sg17
g5
sg18
I192758
sg19
g5
sg20
g5
sg21
g5
sg22
g5
sg23
g263
sg24
I55097
sg25
I192758
ssS'MURRAY JULIA H'
p265
(dp266
g3
I2192
sg4
g5
sg6
F0.00581135449262405
sg7
I57580
sg8
I00
sg9
g5
sg10
I125000
sg11
g5
sg12
I395
sg13
g5
sg14
I45
sg15
I330
sg16
g5
sg17
I400000
sg18
I597461
sg19
I11
sg20
I2
sg21
I196983
sg22
I229284
sg23
g265
sg24
I812194
sg25
I400478
ssS'GARLAND C KEVIN'
p267
(dp268
g3
I209
sg4
g5
sg6
F0.14624505928853754
sg7
I48405
sg8
I00
sg9
g5
sg10
I375304
sg11
g5
sg12
I178
sg13
g5
sg14
I44
sg15
I60814
sg16
g5
sg17
I850000
sg18
I896153
sg19
I10
sg20
I27
sg21
I259907
sg22
I231946
sg23
g267
sg24
I1566469
sg25
I636246
ssS'DODSON KEITH'
p269
(dp270
g3
I176
sg4
g5
sg6
F0.06842105263157895
sg7
I28164
sg8
I00
sg9
g5
sg10
g5
sg11
g5
sg12
I114
sg13
g5
sg14
I14
sg15
I774
sg16
g5
sg17
I70000
sg18
g5
sg19
I10
sg20
I3
sg21
g5
sg22
I221003
sg23
g269
sg24
I319941
sg25
g5
ssS'YEAGER F SCOTT'
p271
(dp272
g3
g5
sg4
g5
sg6
g28
sg7
I53947
sg8
I01
sg9
g5
sg10
g5
sg11
g5
sg12
g5
sg13
g5
sg14
g5
sg15
I147950
sg16
g5
sg17
g5
sg18
I11884758
sg19
g5
sg20
g5
sg21
I3576206
sg22
I158403
sg23
g271
sg24
I360300
sg25
I8308552
ssS'HIRKO JOSEPH'
p273
(dp274
g3
g5
sg4
I10259
sg6
g28
sg7
I77978
sg8
I01
sg9
g5
sg10
g5
sg11
g5
sg12
g5
sg13
g5
sg14
g5
sg15
I2856
sg16
g5
sg17
g5
sg18
I30766064
sg19
g5
sg20
g5
sg21
g5
sg22
g5
sg23
g273
sg24
I91093
sg25
I30766064
ssS'DIETRICH JANET R'
p275
(dp276
g3
I2572
sg4
g5
sg6
F0.12106261859582543
sg7
I3475
sg8
I00
sg9
g5
sg10
I556416
sg11
g5
sg12
I1902
sg13
g5
sg14
I63
sg15
I473
sg16
g5
sg17
I600000
sg18
I1865087
sg19
I305
sg20
I14
sg21
I315068
sg22
I250100
sg23
g275
sg24
I1410464
sg25
I1550019
ssS'DERRICK JR. JAMES V'
p277
(dp278
g3
I2181
sg4
g5
sg6
F0.027184466019417475
sg7
I51124
sg8
I00
sg9
I-1284000
sg10
I484000
sg11
I-1787380
sg12
I1401
sg13
g5
sg14
I909
sg15
I7482
sg16
g5
sg17
I800000
sg18
I8831913
sg19
I64
sg20
I20
sg21
I1787380
sg22
I492375
sg23
g277
sg24
I550981
sg25
I8831913
ssS'FREVERT MARK A'
p279
(dp280
g3
I3275
sg4
I6426990
sg6
F0.07524271844660194
sg7
I86987
sg8
I00
sg9
I-3367011
sg10
I1617011
sg11
g5
sg12
I2979
sg13
I2000000
sg14
I21
sg15
I7427621
sg16
g5
sg17
I2000000
sg18
I14622185
sg19
I242
sg20
I6
sg21
I4188667
sg22
I1060932
sg23
g279
sg24
I17252530
sg25
I10433518
ssS'PAI LOU L'
p281
(dp282
g3
g5
sg4
g5
sg6
g28
sg7
I32047
sg8
I00
sg9
g5
sg10
g5
sg11
g5
sg12
g5
sg13
g5
sg14
g5
sg15
I1829457
sg16
g5
sg17
I1000000
sg18
I23817930
sg19
g5
sg20
g5
sg21
I8453763
sg22
I261879
sg23
g281
sg24
I3123383
sg25
I15364167
ssS'BAY FRANKLIN R'
p283
(dp284
g3
g5
sg4
I260455
sg6
g28
sg7
I129142
sg8
I00
sg9
I-201641
sg10
g5
sg11
I-82782
sg12
g5
sg13
g5
sg14
g5
sg15
I69
sg16
g5
sg17
I400000
sg18
I63014
sg19
g5
sg20
g5
sg21
I145796
sg22
I239671
sg23
g283
sg24
I827696
sg25
g5
ssS'HAYSLETT RODERICK J'
p285
(dp286
g3
I2649
sg4
g5
sg6
F0.019676549865229112
sg7
g5
sg8
I00
sg9
g5
sg10
g5
sg11
g5
sg12
I571
sg13
g5
sg14
I1061
sg15
g5
sg16
g5
sg17
g5
sg18
I346663
sg19
I35
sg20
I38
sg21
I346663
sg22
g5
sg23
g285
sg24
g5
sg25
g5
ssS'FUGH JOHN L'
p287
(dp288
g3
g5
sg4
I50591
sg6
g28
sg7
g5
sg8
I00
sg9
g5
sg10
g5
sg11
g5
sg12
g5
sg13
g5
sg14
g5
sg15
g5
sg16
g5
sg17
g5
sg18
I176378
sg19
g5
sg20
g5
sg21
g5
sg22
g5
sg23
g287
sg24
I50591
sg25
I176378
ssS'FALLON JAMES B'
p289
(dp290
g3
I1755
sg4
g5
sg6
F0.04316939890710383
sg7
I95924
sg8
I00
sg9
g5
sg10
I374347
sg11
g5
sg12
I1604
sg13
g5
sg14
I75
sg15
I401481
sg16
g5
sg17
I2500000
sg18
I2332399
sg19
I42
sg20
I37
sg21
I1392142
sg22
I304588
sg23
g289
sg24
I3676340
sg25
I940257
ssS'KOENIG MARK E'
p291
(dp292
g3
I2374
sg4
g5
sg6
F0.02792607802874743
sg7
I127017
sg8
I01
sg9
g5
sg10
I300000
sg11
g5
sg12
I2271
sg13
g5
sg14
I61
sg15
I150458
sg16
g5
sg17
I700000
sg18
I1920055
sg19
I53
sg20
I15
sg21
I1248318
sg22
I309946
sg23
g291
sg24
I1587421
sg25
I671737
ssS'SAVAGE FRANK'
p293
(dp294
g3
g5
sg4
g5
sg6
g28
sg7
g5
sg8
I00
sg9
I-121284
sg10
g5
sg11
g5
sg12
g5
sg13
g5
sg14
g5
sg15
g5
sg16
I125034
sg17
g5
sg18
g5
sg19
g5
sg20
g5
sg21
g5
sg22
g5
sg23
g293
sg24
I3750
sg25
g5
ssS'IZZO LAWRENCE L'
p295
(dp296
g3
I496
sg4
g5
sg6
F0.06407766990291262
sg7
I28093
sg8
I00
sg9
g5
sg10
I312500
sg11
g5
sg12
I437
sg13
g5
sg14
I19
sg15
I1553729
sg16
g5
sg17
g5
sg18
I5819980
sg19
I28
sg20
I5
sg21
I3654808
sg22
I85274
sg23
g295
sg24
I1979596
sg25
I2165172
ssS'TILNEY ELIZABETH A'
p297
(dp298
g3
I460
sg4
g5
sg6
F0.04384133611691023
sg7
g5
sg8
I00
sg9
I-575000
sg10
I275000
sg11
g5
sg12
I379
sg13
g5
sg14
I19
sg15
I152055
sg16
g5
sg17
I300000
sg18
I1168042
sg19
I10
sg20
I11
sg21
I576792
sg22
I247338
sg23
g297
sg24
I399393
sg25
I591250
ssS'MARTIN AMANDA K'
p299
(dp300
g3
I1522
sg4
I85430
sg6
F0.0045662100456621
sg7
I8211
sg8
I00
sg9
g5
sg10
I5145434
sg11
g5
sg12
I477
sg13
g5
sg14
I230
sg15
I2818454
sg16
g5
sg17
g5
sg18
I2070306
sg19
I8
sg20
I0
sg21
g5
sg22
I349487
sg23
g299
sg24
I8407016
sg25
I2070306
ssS'BUY RICHARD B'
p301
(dp302
g3
I3523
sg4
I649584
sg6
F0.04960664335664336
sg7
g5
sg8
I00
sg9
I-694862
sg10
I769862
sg11
g5
sg12
I2333
sg13
g5
sg14
I1053
sg15
I400572
sg16
g5
sg17
I900000
sg18
I3444470
sg19
I156
sg20
I71
sg21
I901657
sg22
I330546
sg23
g301
sg24
I2355702
sg25
I2542813
ssS'GRAMM WENDY L'
p303
(dp304
g3
g5
sg4
g5
sg6
g28
sg7
g5
sg8
I00
sg9
g5
sg10
g5
sg11
g5
sg12
g5
sg13
g5
sg14
g5
sg15
g5
sg16
I119292
sg17
g5
sg18
g5
sg19
g5
sg20
g5
sg21
g5
sg22
g5
sg23
g303
sg24
I119292
sg25
g5
ssS'CAUSEY RICHARD A'
p305
(dp306
g3
I1892
sg4
g5
sg6
F0.03606388459556929
sg7
I30674
sg8
I01
sg9
I-235000
sg10
I350000
sg11
g5
sg12
I1585
sg13
g5
sg14
I49
sg15
I307895
sg16
g5
sg17
I1000000
sg18
I2502063
sg19
I58
sg20
I12
sg21
I2502063
sg22
I415189
sg23
g305
sg24
I1868758
sg25
g5
ssS'TAYLOR MITCHELL S'
p307
(dp308
g3
I533
sg4
I227449
sg6
F0.0
sg7
g5
sg8
I00
sg9
g5
sg10
g5
sg11
g5
sg12
I300
sg13
g5
sg14
I29
sg15
g5
sg16
g5
sg17
I600000
sg18
I3745048
sg19
I0
sg20
I0
sg21
I563798
sg22
I265214
sg23
g307
sg24
I1092663
sg25
I3181250
ssS'DONAHUE JR JEFFREY M'
p309
(dp310
g3
I865
sg4
g5
sg6
F0.22435174746335965
sg7
I96268
sg8
I00
sg9
I-300000
sg10
g5
sg11
g5
sg12
I772
sg13
g5
sg14
I22
sg15
I891
sg16
g5
sg17
I800000
sg18
I1080988
sg19
I188
sg20
I11
sg21
I315068
sg22
I278601
sg23
g309
sg24
I875760
sg25
I765920
ssS'GLISAN JR BEN F'
p311
(dp312
g3
I873
sg4
g5
sg6
F0.06524184476940383
sg7
I125978
sg8
I01
sg9
g5
sg10
I71023
sg11
g5
sg12
I874
sg13
g5
sg14
I16
sg15
I200308
sg16
g5
sg17
I600000
sg18
I778546
sg19
I52
sg20
I6
sg21
I393818
sg22
I274975
sg23
g311
sg24
I1272284
sg25
I384728
ss.